target datalayout = "e-m:e-p270:32:32-p271:32:32-p272:64:64-i64:64-i128:128-f80:128-n8:16:32:64-S128"
target triple = "x86_64-pc-linux-gnu"

%"class.folly::netops::Msgheader" = type { %struct.msghdr }
%struct.msghdr = type { ptr, i32, ptr, i64, ptr, i64, i32 }

; Function Attrs: mustprogress nounwind uwtable
define void @_ZN5folly6netops9Msgheader11incrCmsgLenEm(ptr noundef nonnull align 8 dereferenceable(56) %0, i64 noundef %1) #3 align 2 {
  %3 = alloca ptr, align 8
  %4 = alloca i64, align 8
  store ptr %0, ptr %3, align 8, !tbaa !40
  store i64 %1, ptr %4, align 8, !tbaa !30
  %5 = load ptr, ptr %3, align 8
  %6 = load i64, ptr %4, align 8, !tbaa !30
  %7 = add i64 %6, 8
  %8 = sub i64 %7, 1
  %9 = and i64 %8, -8
  %10 = add i64 %9, 16
  %11 = getelementptr inbounds nuw %"class.folly::netops::Msgheader", ptr %5, i32 0, i32 0
  %12 = getelementptr inbounds nuw %struct.msghdr, ptr %11, i32 0, i32 5
  %13 = load i64, ptr %12, align 8, !tbaa !53
  %14 = add i64 %13, %10
  store i64 %14, ptr %12, align 8, !tbaa !53
  ret void
}