; Function Attrs: mustprogress nofree norecurse nosync nounwind willreturn memory(argmem: readwrite) uwtable
define void @_ZN5folly6netops9Msgheader11incrCmsgLenEm(ptr noundef nonnull align 8 captures(none) dereferenceable(56) %0, i64 noundef %1) local_unnamed_addr #8 align 2 {
  %3 = add i64 %1, 7
  %4 = and i64 %3, -8
  %5 = add i64 %4, 16
  %6 = getelementptr inbounds nuw i8, ptr %0, i64 40
  %7 = load i64, ptr %6, align 8, !tbaa !25
  %8 = add i64 %5, %7
  store i64 %8, ptr %6, align 8, !tbaa !25
  ret void
}